target datalayout = "e-m:e-p270:32:32-p271:32:32-p272:64:64-i64:64-i128:128-f80:128-n8:16:32:64-S128"
target triple = "x86_64-pc-linux-gnu"

; Function Attrs: mustprogress nounwind uwtable
define void @_ZN10OpenSubdiv6v3_6_03Far17PatchTableFactory12PatchFaceTag38assignTransitionPropertiesFromEdgeMaskEi(ptr noundef nonnull align 4 dereferenceable(4) %0, i32 noundef %1) #6 align 2 {
  %3 = alloca ptr, align 8
  %4 = alloca i32, align 4
  store ptr %0, ptr %3, align 8
  store i32 %1, ptr %4, align 4
  %5 = load ptr, ptr %3, align 8
  %6 = load i32, ptr %4, align 4
  %7 = load i32, ptr %5, align 4
  %8 = and i32 %6, 15
  %9 = shl i32 %8, 2
  %10 = and i32 %7, -61
  %11 = or i32 %10, %9
  store i32 %11, ptr %5, align 4
  ret void
}