; Function Attrs: mustprogress nofree norecurse nosync nounwind willreturn memory(argmem: readwrite) uwtable
define void @_ZN10OpenSubdiv6v3_6_03Far17PatchTableFactory12PatchFaceTag38assignTransitionPropertiesFromEdgeMaskEi(ptr noundef nonnull align 4 captures(none) dereferenceable(4) %0, i32 noundef %1) local_unnamed_addr #11 align 2 {
  %3 = load i32, ptr %0, align 4
  %4 = shl i32 %1, 2
  %5 = and i32 %4, 60
  %6 = and i32 %3, -61
  %7 = or disjoint i32 %6, %5
  store i32 %7, ptr %0, align 4
  ret void
}